; Function Attrs: nounwind uwtable
define noalias ptr @H5MF__sect_new(i32 noundef %0, i64 noundef %1, i64 noundef %2) local_unnamed_addr #0 {
  %4 = tail call noalias ptr @H5FL_reg_malloc(ptr noundef nonnull @H5_H5MF_free_section_t_reg_free_list) #5
  %5 = icmp eq ptr %4, null
  br i1 %5, label %6, label %10

6:                                                ; preds = %3
  %7 = load i64, ptr @H5E_RESOURCE_g, align 8
  %8 = load i64, ptr @H5E_NOSPACE_g, align 8
  %9 = tail call i32 (ptr, ptr, i32, i64, i64, ptr, ...) @H5E_printf_stack(ptr noundef nonnull @.str, ptr noundef nonnull @__func__.H5MF__sect_new, i32 noundef 196, i64 noundef %7, i64 noundef %8, ptr noundef nonnull @.str.1) #5
  br label %14

10:                                               ; preds = %3
  store i64 %1, ptr %4, align 8
  %11 = getelementptr inbounds i8, ptr %4, i64 8
  store i64 %2, ptr %11, align 8
  %12 = getelementptr inbounds i8, ptr %4, i64 16
  store i32 %0, ptr %12, align 8
  %13 = getelementptr inbounds i8, ptr %4, i64 20
  store i32 0, ptr %13, align 4
  br label %14

14:                                               ; preds = %10, %6
  ret ptr %4
}